; Function Attrs: nounwind uwtable
define dso_local ptr @dbFind(ptr noundef readonly captures(none) %0, ptr noundef %1) local_unnamed_addr #0 {
  %3 = load ptr, ptr %0, align 8, !tbaa !6
  %4 = load ptr, ptr getelementptr inbounds nuw (i8, ptr @server, i64 1480), align 8, !tbaa !20
  %.not.i.i = icmp eq ptr %4, null
  br i1 %.not.i.i, label %13, label %5

5:                                                ; preds = %2
  %6 = getelementptr inbounds nuw i8, ptr %4, i64 232
  %7 = load i32, ptr %6, align 8, !tbaa !44
  %8 = icmp sgt i32 %7, -1
  br i1 %8, label %9, label %13

9:                                                ; preds = %5
  %10 = getelementptr inbounds nuw i8, ptr %4, i64 8
  %11 = load i64, ptr %10, align 8, !tbaa !55
  %12 = and i64 %11, 536870912
  %.not3.i.i = icmp eq i64 %12, 0
  br i1 %.not3.i.i, label %13, label %dbFindGeneric.exit

13:                                               ; preds = %9, %5, %2
  %14 = tail call i32 @calculateKeySlot(ptr noundef %1)
  br label %dbFindGeneric.exit

dbFindGeneric.exit:                               ; preds = %9, %13
  %.0.i.i = phi i32 [ %14, %13 ], [ %7, %9 ]
  %15 = tail call ptr @kvstoreDictFind(ptr noundef %3, i32 noundef %.0.i.i, ptr noundef %1) #20
  ret ptr %15
}